target datalayout = "e-m:e-p270:32:32-p271:32:32-p272:64:64-i64:64-i128:128-f80:128-n8:16:32:64-S128"
target triple = "x86_64-pc-linux-gnu"

@.str.6 = private unnamed_addr constant [6 x i8] c"%luTB\00", align 1
@.str.7 = private unnamed_addr constant [6 x i8] c"%luGB\00", align 1
@.str.8 = private unnamed_addr constant [6 x i8] c"%luMB\00", align 1
@.str.9 = private unnamed_addr constant [6 x i8] c"%luKB\00", align 1
@.str.10 = private unnamed_addr constant [5 x i8] c"%luB\00", align 1

; Function Attrs: mustprogress nounwind uwtable
define noundef i32 @_ZN7rocksdb16AppendHumanBytesEmPci(i64 noundef %0, ptr noundef %1, i32 noundef %2) #2 {
  %4 = alloca i32, align 4
  %5 = alloca i64, align 8
  %6 = alloca ptr, align 8
  %7 = alloca i32, align 4
  %8 = alloca i64, align 8
  %9 = alloca i32, align 4
  store i64 %0, ptr %5, align 8, !tbaa !32
  store ptr %1, ptr %6, align 8, !tbaa !11
  store i32 %2, ptr %7, align 4, !tbaa !34
  call void @llvm.lifetime.start.p0(i64 8, ptr %8) #4
  store i64 10, ptr %8, align 8, !tbaa !32
  %10 = load i64, ptr %5, align 8, !tbaa !32
  %11 = icmp uge i64 %10, 10995116277760
  br i1 %11, label %12, label %19

12:                                               ; preds = %3
  %13 = load ptr, ptr %6, align 8, !tbaa !11
  %14 = load i32, ptr %7, align 4, !tbaa !34
  %15 = sext i32 %14 to i64
  %16 = load i64, ptr %5, align 8, !tbaa !32
  %17 = lshr i64 %16, 40
  %18 = call i32 (ptr, i64, ptr, ...) @snprintf(ptr noundef %13, i64 noundef %15, ptr noundef @.str.6, i64 noundef %17) #4
  store i32 %18, ptr %4, align 4
  store i32 1, ptr %9, align 4
  br label %55

19:                                               ; preds = %3
  %20 = load i64, ptr %5, align 8, !tbaa !32
  %21 = icmp uge i64 %20, 10737418240
  br i1 %21, label %22, label %29

22:                                               ; preds = %19
  %23 = load ptr, ptr %6, align 8, !tbaa !11
  %24 = load i32, ptr %7, align 4, !tbaa !34
  %25 = sext i32 %24 to i64
  %26 = load i64, ptr %5, align 8, !tbaa !32
  %27 = lshr i64 %26, 30
  %28 = call i32 (ptr, i64, ptr, ...) @snprintf(ptr noundef %23, i64 noundef %25, ptr noundef @.str.7, i64 noundef %27) #4
  store i32 %28, ptr %4, align 4
  store i32 1, ptr %9, align 4
  br label %55

29:                                               ; preds = %19
  %30 = load i64, ptr %5, align 8, !tbaa !32
  %31 = icmp uge i64 %30, 10485760
  br i1 %31, label %32, label %39

32:                                               ; preds = %29
  %33 = load ptr, ptr %6, align 8, !tbaa !11
  %34 = load i32, ptr %7, align 4, !tbaa !34
  %35 = sext i32 %34 to i64
  %36 = load i64, ptr %5, align 8, !tbaa !32
  %37 = lshr i64 %36, 20
  %38 = call i32 (ptr, i64, ptr, ...) @snprintf(ptr noundef %33, i64 noundef %35, ptr noundef @.str.8, i64 noundef %37) #4
  store i32 %38, ptr %4, align 4
  store i32 1, ptr %9, align 4
  br label %55

39:                                               ; preds = %29
  %40 = load i64, ptr %5, align 8, !tbaa !32
  %41 = icmp uge i64 %40, 10240
  br i1 %41, label %42, label %49

42:                                               ; preds = %39
  %43 = load ptr, ptr %6, align 8, !tbaa !11
  %44 = load i32, ptr %7, align 4, !tbaa !34
  %45 = sext i32 %44 to i64
  %46 = load i64, ptr %5, align 8, !tbaa !32
  %47 = lshr i64 %46, 10
  %48 = call i32 (ptr, i64, ptr, ...) @snprintf(ptr noundef %43, i64 noundef %45, ptr noundef @.str.9, i64 noundef %47) #4
  store i32 %48, ptr %4, align 4
  store i32 1, ptr %9, align 4
  br label %55

49:                                               ; preds = %39
  %50 = load ptr, ptr %6, align 8, !tbaa !11
  %51 = load i32, ptr %7, align 4, !tbaa !34
  %52 = sext i32 %51 to i64
  %53 = load i64, ptr %5, align 8, !tbaa !32
  %54 = call i32 (ptr, i64, ptr, ...) @snprintf(ptr noundef %50, i64 noundef %52, ptr noundef @.str.10, i64 noundef %53) #4
  store i32 %54, ptr %4, align 4
  store i32 1, ptr %9, align 4
  br label %55

55:                                               ; preds = %49, %42, %32, %22, %12
  call void @llvm.lifetime.end.p0(i64 8, ptr %8) #4
  %56 = load i32, ptr %4, align 4
  ret i32 %56
}