; Function Attrs: mustprogress nofree nounwind uwtable
define noundef i32 @_ZN7rocksdb16AppendHumanBytesEmPci(i64 noundef %0, ptr noundef writeonly captures(none) %1, i32 noundef %2) local_unnamed_addr #5 {
  %4 = icmp ugt i64 %0, 10995116277759
  br i1 %4, label %5, label %9

5:                                                ; preds = %3
  %6 = sext i32 %2 to i64
  %7 = lshr i64 %0, 40
  %8 = tail call i32 (ptr, i64, ptr, ...) @snprintf(ptr noundef %1, i64 noundef %6, ptr noundef nonnull @.str.6, i64 noundef %7) #26
  br label %29

9:                                                ; preds = %3
  %10 = icmp samesign ugt i64 %0, 10737418239
  br i1 %10, label %11, label %15

11:                                               ; preds = %9
  %12 = sext i32 %2 to i64
  %13 = lshr i64 %0, 30
  %14 = tail call i32 (ptr, i64, ptr, ...) @snprintf(ptr noundef %1, i64 noundef %12, ptr noundef nonnull @.str.7, i64 noundef %13) #26
  br label %29

15:                                               ; preds = %9
  %16 = icmp samesign ugt i64 %0, 10485759
  br i1 %16, label %17, label %21

17:                                               ; preds = %15
  %18 = sext i32 %2 to i64
  %19 = lshr i64 %0, 20
  %20 = tail call i32 (ptr, i64, ptr, ...) @snprintf(ptr noundef %1, i64 noundef %18, ptr noundef nonnull @.str.8, i64 noundef %19) #26
  br label %29

21:                                               ; preds = %15
  %22 = icmp samesign ugt i64 %0, 10239
  %23 = sext i32 %2 to i64
  br i1 %22, label %24, label %27

24:                                               ; preds = %21
  %25 = lshr i64 %0, 10
  %26 = tail call i32 (ptr, i64, ptr, ...) @snprintf(ptr noundef %1, i64 noundef %23, ptr noundef nonnull @.str.9, i64 noundef %25) #26
  br label %29

27:                                               ; preds = %21
  %28 = tail call i32 (ptr, i64, ptr, ...) @snprintf(ptr noundef %1, i64 noundef %23, ptr noundef nonnull @.str.10, i64 noundef %0) #26
  br label %29

29:                                               ; preds = %27, %24, %17, %11, %5
  %.0 = phi i32 [ %8, %5 ], [ %14, %11 ], [ %20, %17 ], [ %26, %24 ], [ %28, %27 ]
  ret i32 %.0
}